; Function Attrs: mustprogress nounwind uwtable
define dso_local void @_ZNK4llvm14RISCVInstrInfo17finalizeInsInstrsERNS_12MachineInstrERjRNS_15SmallVectorImplIPS1_EE(ptr nocapture nonnull readnone align 8 %0, ptr noundef nonnull align 8 dereferenceable(70) %1, ptr nocapture nonnull readnone align 4 %2, ptr noundef nonnull align 8 dereferenceable(16) %3) unnamed_addr #2 align 2 {
  %5 = alloca %"class.llvm::MachineOperand", align 8
  %6 = getelementptr inbounds nuw i8, ptr %1, i64 68
  %7 = load i16, ptr %6, align 4
  %8 = tail call noundef signext i16 @_ZN4llvm5RISCV18getNamedOperandIdxEtt(i16 noundef zeroext %7, i16 noundef zeroext 3) #27
  %9 = icmp slt i16 %8, 0
  br i1 %9, label %.loopexit, label %10

10:                                               ; preds = %4
  %11 = getelementptr inbounds nuw i8, ptr %1, i64 32
  %12 = load ptr, ptr %11, align 8
  %13 = zext nneg i16 %8 to i64
  %14 = getelementptr inbounds %"class.llvm::MachineOperand", ptr %12, i64 %13
  %15 = tail call noundef ptr @_ZNK4llvm12MachineInstr5getMFEv(ptr noundef nonnull align 8 dereferenceable(70) %1) #25
  %16 = load ptr, ptr %3, align 8
  %17 = tail call noundef i64 @_ZNK4llvm15SmallVectorBaseIjE4sizeEv(ptr noundef nonnull align 8 dereferenceable(16) %3) #25
  %18 = getelementptr inbounds ptr, ptr %16, i64 %17
  %.not22 = icmp eq i64 %17, 0
  br i1 %.not22, label %.loopexit, label %.lr.ph

.lr.ph:                                           ; preds = %10
  %19 = getelementptr inbounds nuw i8, ptr %14, i64 16
  %20 = getelementptr inbounds nuw i8, ptr %5, i64 8
  %21 = getelementptr inbounds nuw i8, ptr %5, i64 4
  %22 = getelementptr inbounds nuw i8, ptr %5, i64 16
  br label %23

23:                                               ; preds = %.lr.ph, %36
  %.023 = phi ptr [ %16, %.lr.ph ], [ %37, %36 ]
  %24 = load ptr, ptr %.023, align 8
  %25 = getelementptr inbounds nuw i8, ptr %24, i64 68
  %26 = load i16, ptr %25, align 4
  %27 = call noundef signext i16 @_ZN4llvm5RISCV18getNamedOperandIdxEtt(i16 noundef zeroext %26, i16 noundef zeroext 3) #27
  %28 = sext i16 %27 to i32
  %29 = getelementptr inbounds nuw i8, ptr %24, i64 40
  %30 = load i24, ptr %29, align 8
  %31 = zext i24 %30 to i32
  %.not18 = icmp eq i32 %31, %28
  br i1 %.not18, label %32, label %36

32:                                               ; preds = %23
  call void @_ZN4llvm12MachineInstr10addOperandERNS_15MachineFunctionERKNS_14MachineOperandE(ptr noundef nonnull align 8 dereferenceable(70) %24, ptr noundef nonnull align 8 dereferenceable(1041) %15, ptr noundef nonnull align 8 dereferenceable(32) %14) #25
  %33 = load i64, ptr %19, align 8
  %34 = icmp eq i64 %33, 7
  br i1 %34, label %35, label %36

35:                                               ; preds = %32
  call void @llvm.lifetime.start.p0(i64 32, ptr nonnull %5)
  store ptr null, ptr %20, align 8, !alias.scope !176
  store i32 2, ptr %21, align 4, !alias.scope !176
  call void @llvm.memset.p0.i64(ptr noundef nonnull align 8 dereferenceable(16) %22, i8 0, i64 16, i1 false), !alias.scope !176
  store i32 33554432, ptr %5, align 8, !alias.scope !176
  call void @_ZN4llvm12MachineInstr10addOperandERNS_15MachineFunctionERKNS_14MachineOperandE(ptr noundef nonnull align 8 dereferenceable(70) %24, ptr noundef nonnull align 8 dereferenceable(1041) %15, ptr noundef nonnull align 8 dereferenceable(32) %5) #25
  call void @llvm.lifetime.end.p0(i64 32, ptr nonnull %5)
  br label %36

36:                                               ; preds = %32, %35, %23
  %37 = getelementptr inbounds i8, ptr %.023, i64 8
  %.not = icmp eq ptr %37, %18
  br i1 %.not, label %.loopexit, label %23

.loopexit:                                        ; preds = %36, %10, %4
  ret void
}